; Function Attrs: mustprogress uwtable
define dso_local noundef zeroext i1 @_ZN4i18n12phonenumbers18PhoneNumberMatcher11IsInputUtf8Ev(ptr noundef nonnull align 8 dereferenceable(117) %0) local_unnamed_addr #4 align 2 personality ptr @__gxx_personality_v0 {
  %2 = alloca %"class.i18n::phonenumbers::UnicodeText", align 8
  call void @_ZN4i18n12phonenumbers11UnicodeTextC1Ev(ptr noundef nonnull align 8 dereferenceable(24) %2)
  %3 = getelementptr inbounds i8, ptr %0, i64 24
  %4 = call noundef ptr @_ZNKSt7__cxx1112basic_stringIcSt11char_traitsIcESaIcEE5c_strEv(ptr noundef nonnull align 8 dereferenceable(32) %3) #19
  %5 = call noundef i64 @_ZNKSt7__cxx1112basic_stringIcSt11char_traitsIcESaIcEE4sizeEv(ptr noundef nonnull align 8 dereferenceable(32) %3) #19
  %6 = trunc i64 %5 to i32
  %7 = invoke noundef nonnull align 8 dereferenceable(24) ptr @_ZN4i18n12phonenumbers11UnicodeText11PointToUTF8EPKci(ptr noundef nonnull align 8 dereferenceable(24) %2, ptr noundef %4, i32 noundef %6)
          to label %8 unwind label %13

8:                                                ; preds = %1
  %9 = getelementptr inbounds i8, ptr %2, i64 17
  %10 = load i8, ptr %9, align 1
  %11 = and i8 %10, 1
  %12 = icmp ne i8 %11, 0
  call void @_ZN4i18n12phonenumbers11UnicodeTextD1Ev(ptr noundef nonnull align 8 dereferenceable(24) %2) #19
  ret i1 %12

13:                                               ; preds = %1
  %14 = landingpad { ptr, i32 }
          cleanup
  call void @_ZN4i18n12phonenumbers11UnicodeTextD1Ev(ptr noundef nonnull align 8 dereferenceable(24) %2) #19
  resume { ptr, i32 } %14
}